target datalayout = "e-m:e-p270:32:32-p271:32:32-p272:64:64-i64:64-i128:128-f80:128-n8:16:32:64-S128"
target triple = "x86_64-pc-linux-gnu"

%struct.clusterManagerNode = type { ptr, ptr, ptr, i32, i32, i64, i64, i64, i32, ptr, ptr, i32, [16384 x i8], i32, i32, ptr, ptr, ptr, i32, i32, float, i32 }

@.str.140 = private unnamed_addr constant [2 x i8] c" \00", align 1
@.str.219 = private unnamed_addr constant [2 x i8] c"M\00", align 1
@.str.220 = private unnamed_addr constant [2 x i8] c"S\00", align 1
@.str.221 = private unnamed_addr constant [12 x i8] c"S: %S %s:%u\00", align 1
@.str.222 = private unnamed_addr constant [41 x i8] c"%s: %S %s:%u\0A%s   slots:%S (%u slots) %S\00", align 1
@.str.223 = private unnamed_addr constant [20 x i8] c"\0A%s   replicates %S\00", align 1
@.str.224 = private unnamed_addr constant [31 x i8] c"\0A%s   %U additional replica(s)\00", align 1

; Function Attrs: nounwind uwtable
define internal ptr @clusterManagerNodeInfo(ptr noundef %0, i32 noundef %1) #0 {
  %3 = alloca ptr, align 8
  %4 = alloca i32, align 4
  %5 = alloca ptr, align 8
  %6 = alloca ptr, align 8
  %7 = alloca i32, align 4
  %8 = alloca i32, align 4
  %9 = alloca ptr, align 8
  %10 = alloca ptr, align 8
  %11 = alloca ptr, align 8
  store ptr %0, ptr %3, align 8, !tbaa !88
  store i32 %1, ptr %4, align 4, !tbaa !10
  call void @llvm.lifetime.start.p0(i64 8, ptr %5) #15
  %12 = call ptr @hi_sdsempty()
  store ptr %12, ptr %5, align 8, !tbaa !5
  call void @llvm.lifetime.start.p0(i64 8, ptr %6) #15
  %13 = call ptr @hi_sdsempty()
  store ptr %13, ptr %6, align 8, !tbaa !5
  call void @llvm.lifetime.start.p0(i64 4, ptr %7) #15
  store i32 0, ptr %7, align 4, !tbaa !10
  br label %14

14:                                               ; preds = %21, %2
  %15 = load i32, ptr %7, align 4, !tbaa !10
  %16 = load i32, ptr %4, align 4, !tbaa !10
  %17 = icmp slt i32 %15, %16
  br i1 %17, label %18, label %24

18:                                               ; preds = %14
  %19 = load ptr, ptr %6, align 8, !tbaa !5
  %20 = call ptr @hi_sdscat(ptr noundef %19, ptr noundef @.str.140)
  store ptr %20, ptr %6, align 8, !tbaa !5
  br label %21

21:                                               ; preds = %18
  %22 = load i32, ptr %7, align 4, !tbaa !10
  %23 = add nsw i32 %22, 1
  store i32 %23, ptr %7, align 4, !tbaa !10
  br label %14, !llvm.loop !457

24:                                               ; preds = %14
  %25 = load i32, ptr %4, align 4, !tbaa !10
  %26 = icmp ne i32 %25, 0
  br i1 %26, label %27, label %31

27:                                               ; preds = %24
  %28 = load ptr, ptr %5, align 8, !tbaa !5
  %29 = load ptr, ptr %6, align 8, !tbaa !5
  %30 = call ptr @hi_sdscat(ptr noundef %28, ptr noundef %29)
  store ptr %30, ptr %5, align 8, !tbaa !5
  br label %31

31:                                               ; preds = %27, %24
  call void @llvm.lifetime.start.p0(i64 4, ptr %8) #15
  %32 = load ptr, ptr %3, align 8, !tbaa !88
  %33 = getelementptr inbounds nuw %struct.clusterManagerNode, ptr %32, i32 0, i32 8
  %34 = load i32, ptr %33, align 8, !tbaa !148
  %35 = and i32 %34, 2
  %36 = icmp ne i32 %35, 0
  %37 = xor i1 %36, true
  %38 = zext i1 %37 to i32
  store i32 %38, ptr %8, align 4, !tbaa !10
  call void @llvm.lifetime.start.p0(i64 8, ptr %9) #15
  %39 = load i32, ptr %8, align 4, !tbaa !10
  %40 = icmp ne i32 %39, 0
  %41 = select i1 %40, ptr @.str.219, ptr @.str.220
  store ptr %41, ptr %9, align 8, !tbaa !5
  call void @llvm.lifetime.start.p0(i64 8, ptr %10) #15
  store ptr null, ptr %10, align 8, !tbaa !5
  %42 = load ptr, ptr %3, align 8, !tbaa !88
  %43 = getelementptr inbounds nuw %struct.clusterManagerNode, ptr %42, i32 0, i32 11
  %44 = load i32, ptr %43, align 8, !tbaa !116
  %45 = icmp ne i32 %44, 0
  br i1 %45, label %46, label %63

46:                                               ; preds = %31
  %47 = load ptr, ptr %3, align 8, !tbaa !88
  %48 = getelementptr inbounds nuw %struct.clusterManagerNode, ptr %47, i32 0, i32 10
  %49 = load ptr, ptr %48, align 8, !tbaa !120
  %50 = icmp ne ptr %49, null
  br i1 %50, label %51, label %63

51:                                               ; preds = %46
  %52 = load ptr, ptr %5, align 8, !tbaa !5
  %53 = load ptr, ptr %3, align 8, !tbaa !88
  %54 = getelementptr inbounds nuw %struct.clusterManagerNode, ptr %53, i32 0, i32 1
  %55 = load ptr, ptr %54, align 8, !tbaa !121
  %56 = load ptr, ptr %3, align 8, !tbaa !88
  %57 = getelementptr inbounds nuw %struct.clusterManagerNode, ptr %56, i32 0, i32 2
  %58 = load ptr, ptr %57, align 8, !tbaa !90
  %59 = load ptr, ptr %3, align 8, !tbaa !88
  %60 = getelementptr inbounds nuw %struct.clusterManagerNode, ptr %59, i32 0, i32 3
  %61 = load i32, ptr %60, align 8, !tbaa !93
  %62 = call ptr (ptr, ptr, ...) @hi_sdscatfmt(ptr noundef %52, ptr noundef @.str.221, ptr noundef %55, ptr noundef %58, i32 noundef %61)
  store ptr %62, ptr %5, align 8, !tbaa !5
  br label %88

63:                                               ; preds = %46, %31
  %64 = load ptr, ptr %3, align 8, !tbaa !88
  %65 = call ptr @clusterManagerNodeSlotsString(ptr noundef %64)
  store ptr %65, ptr %10, align 8, !tbaa !5
  call void @llvm.lifetime.start.p0(i64 8, ptr %11) #15
  %66 = load ptr, ptr %3, align 8, !tbaa !88
  %67 = call ptr @clusterManagerNodeFlagString(ptr noundef %66)
  store ptr %67, ptr %11, align 8, !tbaa !5
  %68 = load ptr, ptr %5, align 8, !tbaa !5
  %69 = load ptr, ptr %9, align 8, !tbaa !5
  %70 = load ptr, ptr %3, align 8, !tbaa !88
  %71 = getelementptr inbounds nuw %struct.clusterManagerNode, ptr %70, i32 0, i32 1
  %72 = load ptr, ptr %71, align 8, !tbaa !121
  %73 = load ptr, ptr %3, align 8, !tbaa !88
  %74 = getelementptr inbounds nuw %struct.clusterManagerNode, ptr %73, i32 0, i32 2
  %75 = load ptr, ptr %74, align 8, !tbaa !90
  %76 = load ptr, ptr %3, align 8, !tbaa !88
  %77 = getelementptr inbounds nuw %struct.clusterManagerNode, ptr %76, i32 0, i32 3
  %78 = load i32, ptr %77, align 8, !tbaa !93
  %79 = load ptr, ptr %6, align 8, !tbaa !5
  %80 = load ptr, ptr %10, align 8, !tbaa !5
  %81 = load ptr, ptr %3, align 8, !tbaa !88
  %82 = getelementptr inbounds nuw %struct.clusterManagerNode, ptr %81, i32 0, i32 13
  %83 = load i32, ptr %82, align 4, !tbaa !114
  %84 = load ptr, ptr %11, align 8, !tbaa !5
  %85 = call ptr (ptr, ptr, ...) @hi_sdscatfmt(ptr noundef %68, ptr noundef @.str.222, ptr noundef %69, ptr noundef %72, ptr noundef %75, i32 noundef %78, ptr noundef %79, ptr noundef %80, i32 noundef %83, ptr noundef %84)
  store ptr %85, ptr %5, align 8, !tbaa !5
  %86 = load ptr, ptr %10, align 8, !tbaa !5
  call void @hi_sdsfree(ptr noundef %86)
  %87 = load ptr, ptr %11, align 8, !tbaa !5
  call void @hi_sdsfree(ptr noundef %87)
  call void @llvm.lifetime.end.p0(i64 8, ptr %11) #15
  br label %88

88:                                               ; preds = %63, %51
  %89 = load ptr, ptr %3, align 8, !tbaa !88
  %90 = getelementptr inbounds nuw %struct.clusterManagerNode, ptr %89, i32 0, i32 10
  %91 = load ptr, ptr %90, align 8, !tbaa !120
  %92 = icmp ne ptr %91, null
  br i1 %92, label %93, label %100

93:                                               ; preds = %88
  %94 = load ptr, ptr %5, align 8, !tbaa !5
  %95 = load ptr, ptr %6, align 8, !tbaa !5
  %96 = load ptr, ptr %3, align 8, !tbaa !88
  %97 = getelementptr inbounds nuw %struct.clusterManagerNode, ptr %96, i32 0, i32 10
  %98 = load ptr, ptr %97, align 8, !tbaa !120
  %99 = call ptr (ptr, ptr, ...) @hi_sdscatfmt(ptr noundef %94, ptr noundef @.str.223, ptr noundef %95, ptr noundef %98)
  store ptr %99, ptr %5, align 8, !tbaa !5
  br label %113

100:                                              ; preds = %88
  %101 = load ptr, ptr %3, align 8, !tbaa !88
  %102 = getelementptr inbounds nuw %struct.clusterManagerNode, ptr %101, i32 0, i32 14
  %103 = load i32, ptr %102, align 8, !tbaa !415
  %104 = icmp ne i32 %103, 0
  br i1 %104, label %105, label %112

105:                                              ; preds = %100
  %106 = load ptr, ptr %5, align 8, !tbaa !5
  %107 = load ptr, ptr %6, align 8, !tbaa !5
  %108 = load ptr, ptr %3, align 8, !tbaa !88
  %109 = getelementptr inbounds nuw %struct.clusterManagerNode, ptr %108, i32 0, i32 14
  %110 = load i32, ptr %109, align 8, !tbaa !415
  %111 = call ptr (ptr, ptr, ...) @hi_sdscatfmt(ptr noundef %106, ptr noundef @.str.224, ptr noundef %107, i32 noundef %110)
  store ptr %111, ptr %5, align 8, !tbaa !5
  br label %112

112:                                              ; preds = %105, %100
  br label %113

113:                                              ; preds = %112, %93
  %114 = load ptr, ptr %6, align 8, !tbaa !5
  call void @hi_sdsfree(ptr noundef %114)
  %115 = load ptr, ptr %5, align 8, !tbaa !5
  call void @llvm.lifetime.end.p0(i64 8, ptr %10) #15
  call void @llvm.lifetime.end.p0(i64 8, ptr %9) #15
  call void @llvm.lifetime.end.p0(i64 4, ptr %8) #15
  call void @llvm.lifetime.end.p0(i64 4, ptr %7) #15
  call void @llvm.lifetime.end.p0(i64 8, ptr %6) #15
  call void @llvm.lifetime.end.p0(i64 8, ptr %5) #15
  ret ptr %115
}