; Function Attrs: nounwind uwtable
define internal fastcc ptr @clusterManagerNodeInfo(ptr noundef readonly captures(none) %0, i32 noundef range(i32 0, 5) %1) unnamed_addr #0 {
  %3 = tail call ptr @hi_sdsempty() #33
  %4 = tail call ptr @hi_sdsempty() #33
  %.not49 = icmp eq i32 %1, 0
  br i1 %.not49, label %._crit_edge.thread, label %.lr.ph

.lr.ph:                                           ; preds = %2, %.lr.ph
  %.03748 = phi ptr [ %5, %.lr.ph ], [ %4, %2 ]
  %.03847 = phi i32 [ %6, %.lr.ph ], [ 0, %2 ]
  %5 = tail call ptr @hi_sdscat(ptr noundef %.03748, ptr noundef nonnull @.str.140) #33
  %6 = add nuw nsw i32 %.03847, 1
  %exitcond.not = icmp eq i32 %6, %1
  br i1 %exitcond.not, label %._crit_edge, label %.lr.ph, !llvm.loop !475

._crit_edge:                                      ; preds = %.lr.ph
  %7 = tail call ptr @hi_sdscat(ptr noundef %3, ptr noundef %5) #33
  br label %._crit_edge.thread

._crit_edge.thread:                               ; preds = %2, %._crit_edge
  %.037.lcssa51 = phi ptr [ %5, %._crit_edge ], [ %4, %2 ]
  %.0 = phi ptr [ %7, %._crit_edge ], [ %3, %2 ]
  %8 = getelementptr inbounds nuw i8, ptr %0, i64 56
  %9 = load i32, ptr %8, align 8, !tbaa !129
  %10 = and i32 %9, 2
  %.not42 = icmp eq i32 %10, 0
  %11 = select i1 %.not42, ptr @.str.219, ptr @.str.220
  %12 = getelementptr inbounds nuw i8, ptr %0, i64 80
  %13 = load i32, ptr %12, align 8, !tbaa !103
  %.not43 = icmp eq i32 %13, 0
  br i1 %.not43, label %25, label %14

14:                                               ; preds = %._crit_edge.thread
  %15 = getelementptr inbounds nuw i8, ptr %0, i64 72
  %16 = load ptr, ptr %15, align 8, !tbaa !107
  %.not44 = icmp eq ptr %16, null
  br i1 %.not44, label %25, label %17

17:                                               ; preds = %14
  %18 = getelementptr inbounds nuw i8, ptr %0, i64 8
  %19 = load ptr, ptr %18, align 8, !tbaa !108
  %20 = getelementptr inbounds nuw i8, ptr %0, i64 16
  %21 = load ptr, ptr %20, align 8, !tbaa !74
  %22 = getelementptr inbounds nuw i8, ptr %0, i64 24
  %23 = load i32, ptr %22, align 8, !tbaa !77
  %24 = tail call ptr (ptr, ptr, ...) @hi_sdscatfmt(ptr noundef %.0, ptr noundef nonnull @.str.221, ptr noundef %19, ptr noundef %21, i32 noundef %23) #33
  br label %37

25:                                               ; preds = %14, %._crit_edge.thread
  %26 = tail call fastcc ptr @clusterManagerNodeSlotsString(ptr noundef nonnull %0)
  %27 = tail call fastcc ptr @clusterManagerNodeFlagString(ptr noundef nonnull %0)
  %28 = getelementptr inbounds nuw i8, ptr %0, i64 8
  %29 = load ptr, ptr %28, align 8, !tbaa !108
  %30 = getelementptr inbounds nuw i8, ptr %0, i64 16
  %31 = load ptr, ptr %30, align 8, !tbaa !74
  %32 = getelementptr inbounds nuw i8, ptr %0, i64 24
  %33 = load i32, ptr %32, align 8, !tbaa !77
  %34 = getelementptr inbounds nuw i8, ptr %0, i64 16468
  %35 = load i32, ptr %34, align 4, !tbaa !101
  %36 = tail call ptr (ptr, ptr, ...) @hi_sdscatfmt(ptr noundef %.0, ptr noundef nonnull @.str.222, ptr noundef nonnull %11, ptr noundef %29, ptr noundef %31, i32 noundef %33, ptr noundef %.037.lcssa51, ptr noundef %26, i32 noundef %35, ptr noundef %27) #33
  tail call void @hi_sdsfree(ptr noundef %26) #33
  tail call void @hi_sdsfree(ptr noundef %27) #33
  br label %37

37:                                               ; preds = %25, %17
  %.1 = phi ptr [ %24, %17 ], [ %36, %25 ]
  %38 = getelementptr inbounds nuw i8, ptr %0, i64 72
  %39 = load ptr, ptr %38, align 8, !tbaa !107
  %.not45 = icmp eq ptr %39, null
  br i1 %.not45, label %42, label %40

40:                                               ; preds = %37
  %41 = tail call ptr (ptr, ptr, ...) @hi_sdscatfmt(ptr noundef %.1, ptr noundef nonnull @.str.223, ptr noundef %.037.lcssa51, ptr noundef nonnull %39) #33
  br label %47

42:                                               ; preds = %37
  %43 = getelementptr inbounds nuw i8, ptr %0, i64 16472
  %44 = load i32, ptr %43, align 8, !tbaa !79
  %.not46 = icmp eq i32 %44, 0
  br i1 %.not46, label %47, label %45

45:                                               ; preds = %42
  %46 = tail call ptr (ptr, ptr, ...) @hi_sdscatfmt(ptr noundef %.1, ptr noundef nonnull @.str.224, ptr noundef %.037.lcssa51, i32 noundef %44) #33
  br label %47

47:                                               ; preds = %42, %45, %40
  %.2 = phi ptr [ %41, %40 ], [ %46, %45 ], [ %.1, %42 ]
  tail call void @hi_sdsfree(ptr noundef %.037.lcssa51) #33
  ret ptr %.2
}